target datalayout = "e-m:e-p270:32:32-p271:32:32-p272:64:64-i64:64-i128:128-f80:128-n8:16:32:64-S128"
target triple = "x86_64-pc-linux-gnu"

%"class.std::vector.10" = type { %"struct.std::_Vector_base.11" }
%"struct.std::_Vector_base.11" = type { %"struct.std::_Vector_base<Variable *, std::allocator<Variable *>>::_Vector_impl" }
%"struct.std::_Vector_base<Variable *, std::allocator<Variable *>>::_Vector_impl" = type { %"struct.std::_Vector_base<Variable *, std::allocator<Variable *>>::_Vector_impl_data" }
%"struct.std::_Vector_base<Variable *, std::allocator<Variable *>>::_Vector_impl_data" = type { ptr, ptr, ptr }
%"class.std::__cxx11::basic_string" = type { %"struct.std::__cxx11::basic_string<char>::_Alloc_hider", i64, %union.anon }
%"struct.std::__cxx11::basic_string<char>::_Alloc_hider" = type { ptr }
%union.anon = type { i64, [8 x i8] }
%class.Variable = type { ptr, %"class.std::vector.10", %"class.std::__cxx11::basic_string", ptr, ptr, i8, i8, i8, i8, i8, i8, ptr, i8, %class.CVQualifiers }
%class.CVQualifiers = type { ptr, i8, i8, %"class.std::vector.51", %"class.std::vector.51" }
%"class.std::vector.51" = type { %"struct.std::_Bvector_base" }
%"struct.std::_Bvector_base" = type { %"struct.std::_Bvector_base<std::allocator<bool>>::_Bvector_impl" }
%"struct.std::_Bvector_base<std::allocator<bool>>::_Bvector_impl" = type { %"struct.std::_Bvector_base<std::allocator<bool>>::_Bvector_impl_data" }
%"struct.std::_Bvector_base<std::allocator<bool>>::_Bvector_impl_data" = type { %"struct.std::_Bit_iterator", %"struct.std::_Bit_iterator", ptr }
%"struct.std::_Bit_iterator" = type { %"struct.std::_Bit_iterator_base.base", [4 x i8] }
%"struct.std::_Bit_iterator_base.base" = type <{ ptr, i32 }>

@_ZN10Bookkeeper17read_volatile_cntE = dso_local global i32 0, align 4
@_ZN10Bookkeeper18write_volatile_cntE = dso_local global i32 0, align 4
@_ZN10Bookkeeper21read_non_volatile_cntE = dso_local global i32 0, align 4
@_ZN10Bookkeeper22write_non_volatile_cntE = dso_local global i32 0, align 4
@_ZN10Bookkeeper26read_volatile_thru_ptr_cntE = dso_local global i32 0, align 4
@_ZN10Bookkeeper27write_volatile_thru_ptr_cntE = dso_local global i32 0, align 4
@_ZN10Bookkeeper30lhs_bitfields_structs_vars_cntE = dso_local global i32 0, align 4
@_ZN10Bookkeeper30rhs_bitfields_structs_vars_cntE = dso_local global i32 0, align 4
@_ZN10Bookkeeper16lhs_bitfield_cntE = dso_local global i32 0, align 4
@_ZN10Bookkeeper16rhs_bitfield_cntE = dso_local global i32 0, align 4

; Function Attrs: mustprogress uwtable
define dso_local void @_ZN10Bookkeeper22record_bitfields_readsEPK8Variable(ptr noundef %0) #5 align 2 {
  %2 = alloca ptr, align 8
  %3 = alloca ptr, align 8
  store ptr %0, ptr %2, align 8, !tbaa !92
  call void @llvm.lifetime.start.p0(i64 8, ptr %3) #3
  %4 = load ptr, ptr %2, align 8, !tbaa !92
  %5 = getelementptr inbounds nuw %class.Variable, ptr %4, i32 0, i32 3
  %6 = load ptr, ptr %5, align 8, !tbaa !93
  store ptr %6, ptr %3, align 8, !tbaa !104
  %7 = load ptr, ptr %3, align 8, !tbaa !104
  %8 = call noundef zeroext i1 @_ZNK4Type13has_bitfieldsEv(ptr noundef nonnull align 8 dereferenceable(136) %7)
  br i1 %8, label %9, label %12

9:                                                ; preds = %1
  %10 = load i32, ptr @_ZN10Bookkeeper30rhs_bitfields_structs_vars_cntE, align 4, !tbaa !15
  %11 = add nsw i32 %10, 1
  store i32 %11, ptr @_ZN10Bookkeeper30rhs_bitfields_structs_vars_cntE, align 4, !tbaa !15
  br label %12

12:                                               ; preds = %9, %1
  %13 = load ptr, ptr %2, align 8, !tbaa !92
  %14 = getelementptr inbounds nuw %class.Variable, ptr %13, i32 0, i32 8
  %15 = load i8, ptr %14, align 1, !tbaa !161, !range !72, !noundef !73
  %16 = trunc i8 %15 to i1
  br i1 %16, label %17, label %20

17:                                               ; preds = %12
  %18 = load i32, ptr @_ZN10Bookkeeper16rhs_bitfield_cntE, align 4, !tbaa !15
  %19 = add nsw i32 %18, 1
  store i32 %19, ptr @_ZN10Bookkeeper16rhs_bitfield_cntE, align 4, !tbaa !15
  br label %20

20:                                               ; preds = %17, %12
  call void @llvm.lifetime.end.p0(i64 8, ptr %3) #3
  ret void
}

; Function Attrs: mustprogress uwtable
define dso_local void @_ZN10Bookkeeper23record_bitfields_writesEPK8Variable(ptr noundef %0) #5 align 2 {
  %2 = alloca ptr, align 8
  %3 = alloca ptr, align 8
  store ptr %0, ptr %2, align 8, !tbaa !92
  call void @llvm.lifetime.start.p0(i64 8, ptr %3) #3
  %4 = load ptr, ptr %2, align 8, !tbaa !92
  %5 = getelementptr inbounds nuw %class.Variable, ptr %4, i32 0, i32 3
  %6 = load ptr, ptr %5, align 8, !tbaa !93
  store ptr %6, ptr %3, align 8, !tbaa !104
  %7 = load ptr, ptr %3, align 8, !tbaa !104
  %8 = call noundef zeroext i1 @_ZNK4Type13has_bitfieldsEv(ptr noundef nonnull align 8 dereferenceable(136) %7)
  br i1 %8, label %9, label %12

9:                                                ; preds = %1
  %10 = load i32, ptr @_ZN10Bookkeeper30lhs_bitfields_structs_vars_cntE, align 4, !tbaa !15
  %11 = add nsw i32 %10, 1
  store i32 %11, ptr @_ZN10Bookkeeper30lhs_bitfields_structs_vars_cntE, align 4, !tbaa !15
  br label %12

12:                                               ; preds = %9, %1
  %13 = load ptr, ptr %2, align 8, !tbaa !92
  %14 = getelementptr inbounds nuw %class.Variable, ptr %13, i32 0, i32 8
  %15 = load i8, ptr %14, align 1, !tbaa !161, !range !72, !noundef !73
  %16 = trunc i8 %15 to i1
  br i1 %16, label %17, label %20

17:                                               ; preds = %12
  %18 = load i32, ptr @_ZN10Bookkeeper16lhs_bitfield_cntE, align 4, !tbaa !15
  %19 = add nsw i32 %18, 1
  store i32 %19, ptr @_ZN10Bookkeeper16lhs_bitfield_cntE, align 4, !tbaa !15
  br label %20

20:                                               ; preds = %17, %12
  call void @llvm.lifetime.end.p0(i64 8, ptr %3) #3
  ret void
}

; Function Attrs: mustprogress uwtable
define dso_local void @_ZN10Bookkeeper22record_volatile_accessEPK8Variableib(ptr noundef %0, i32 noundef %1, i1 noundef zeroext %2) #5 align 2 {
  %4 = alloca ptr, align 8
  %5 = alloca i32, align 4
  %6 = alloca i8, align 1
  %7 = alloca i32, align 4
  store ptr %0, ptr %4, align 8, !tbaa !92
  store i32 %1, ptr %5, align 4, !tbaa !15
  %8 = zext i1 %2 to i8
  store i8 %8, ptr %6, align 1, !tbaa !85
  call void @llvm.lifetime.start.p0(i64 4, ptr %7) #3
  %9 = load i8, ptr %6, align 1, !tbaa !85, !range !72, !noundef !73
  %10 = trunc i8 %9 to i1
  br i1 %10, label %11, label %13

11:                                               ; preds = %3
  %12 = load ptr, ptr %4, align 8, !tbaa !92
  call void @_ZN10Bookkeeper23record_bitfields_writesEPK8Variable(ptr noundef %12)
  br label %15

13:                                               ; preds = %3
  %14 = load ptr, ptr %4, align 8, !tbaa !92
  call void @_ZN10Bookkeeper22record_bitfields_readsEPK8Variable(ptr noundef %14)
  br label %15

15:                                               ; preds = %13, %11
  store i32 0, ptr %7, align 4, !tbaa !15
  br label %16

16:                                               ; preds = %60, %15
  %17 = load i32, ptr %7, align 4, !tbaa !15
  %18 = load i32, ptr %5, align 4, !tbaa !15
  %19 = icmp sle i32 %17, %18
  br i1 %19, label %20, label %63

20:                                               ; preds = %16
  %21 = load i8, ptr %6, align 1, !tbaa !85, !range !72, !noundef !73
  %22 = trunc i8 %21 to i1
  br i1 %22, label %23, label %41

23:                                               ; preds = %20
  %24 = load ptr, ptr %4, align 8, !tbaa !92
  %25 = getelementptr inbounds nuw %class.Variable, ptr %24, i32 0, i32 13
  %26 = load i32, ptr %7, align 4, !tbaa !15
  %27 = call noundef zeroext i1 @_ZNK12CVQualifiers23is_volatile_after_derefEi(ptr noundef nonnull align 8 dereferenceable(96) %25, i32 noundef %26)
  br i1 %27, label %28, label %37

28:                                               ; preds = %23
  %29 = load i32, ptr %7, align 4, !tbaa !15
  %30 = icmp ne i32 %29, 0
  br i1 %30, label %31, label %34

31:                                               ; preds = %28
  %32 = load i32, ptr @_ZN10Bookkeeper27write_volatile_thru_ptr_cntE, align 4, !tbaa !15
  %33 = add nsw i32 %32, 1
  store i32 %33, ptr @_ZN10Bookkeeper27write_volatile_thru_ptr_cntE, align 4, !tbaa !15
  br label %34

34:                                               ; preds = %31, %28
  %35 = load i32, ptr @_ZN10Bookkeeper18write_volatile_cntE, align 4, !tbaa !15
  %36 = add nsw i32 %35, 1
  store i32 %36, ptr @_ZN10Bookkeeper18write_volatile_cntE, align 4, !tbaa !15
  br label %40

37:                                               ; preds = %23
  %38 = load i32, ptr @_ZN10Bookkeeper22write_non_volatile_cntE, align 4, !tbaa !15
  %39 = add nsw i32 %38, 1
  store i32 %39, ptr @_ZN10Bookkeeper22write_non_volatile_cntE, align 4, !tbaa !15
  br label %40

40:                                               ; preds = %37, %34
  br label %59

41:                                               ; preds = %20
  %42 = load ptr, ptr %4, align 8, !tbaa !92
  %43 = getelementptr inbounds nuw %class.Variable, ptr %42, i32 0, i32 13
  %44 = load i32, ptr %7, align 4, !tbaa !15
  %45 = call noundef zeroext i1 @_ZNK12CVQualifiers23is_volatile_after_derefEi(ptr noundef nonnull align 8 dereferenceable(96) %43, i32 noundef %44)
  br i1 %45, label %46, label %55

46:                                               ; preds = %41
  %47 = load i32, ptr %7, align 4, !tbaa !15
  %48 = icmp ne i32 %47, 0
  br i1 %48, label %49, label %52

49:                                               ; preds = %46
  %50 = load i32, ptr @_ZN10Bookkeeper26read_volatile_thru_ptr_cntE, align 4, !tbaa !15
  %51 = add nsw i32 %50, 1
  store i32 %51, ptr @_ZN10Bookkeeper26read_volatile_thru_ptr_cntE, align 4, !tbaa !15
  br label %52

52:                                               ; preds = %49, %46
  %53 = load i32, ptr @_ZN10Bookkeeper17read_volatile_cntE, align 4, !tbaa !15
  %54 = add nsw i32 %53, 1
  store i32 %54, ptr @_ZN10Bookkeeper17read_volatile_cntE, align 4, !tbaa !15
  br label %58

55:                                               ; preds = %41
  %56 = load i32, ptr @_ZN10Bookkeeper21read_non_volatile_cntE, align 4, !tbaa !15
  %57 = add nsw i32 %56, 1
  store i32 %57, ptr @_ZN10Bookkeeper21read_non_volatile_cntE, align 4, !tbaa !15
  br label %58

58:                                               ; preds = %55, %52
  br label %59

59:                                               ; preds = %58, %40
  br label %60

60:                                               ; preds = %59
  %61 = load i32, ptr %7, align 4, !tbaa !15
  %62 = add nsw i32 %61, 1
  store i32 %62, ptr %7, align 4, !tbaa !15
  br label %16, !llvm.loop !167

63:                                               ; preds = %16
  call void @llvm.lifetime.end.p0(i64 4, ptr %7) #3
  ret void
}