; Function Attrs: mustprogress uwtable
define dso_local void @_ZN10Bookkeeper22record_volatile_accessEPK8Variableib(ptr noundef %0, i32 noundef %1, i1 noundef zeroext %2) local_unnamed_addr #6 align 2 {
  %4 = getelementptr inbounds nuw i8, ptr %0, i64 64
  %5 = load ptr, ptr %4, align 8, !tbaa !103
  %6 = tail call noundef zeroext i1 @_ZNK4Type13has_bitfieldsEv(ptr noundef nonnull align 8 dereferenceable(136) %5)
  br i1 %2, label %7, label %15

7:                                                ; preds = %3
  br i1 %6, label %8, label %11

8:                                                ; preds = %7
  %9 = load i32, ptr @_ZN10Bookkeeper30lhs_bitfields_structs_vars_cntE, align 4, !tbaa !12
  %10 = add nsw i32 %9, 1
  store i32 %10, ptr @_ZN10Bookkeeper30lhs_bitfields_structs_vars_cntE, align 4, !tbaa !12
  br label %11

11:                                               ; preds = %8, %7
  %12 = getelementptr inbounds nuw i8, ptr %0, i64 83
  %13 = load i8, ptr %12, align 1, !tbaa !152, !range !66, !noundef !67
  %14 = trunc nuw i8 %13 to i1
  br i1 %14, label %_ZN10Bookkeeper23record_bitfields_writesEPK8Variable.exit.sink.split, label %_ZN10Bookkeeper23record_bitfields_writesEPK8Variable.exit

15:                                               ; preds = %3
  br i1 %6, label %16, label %19

16:                                               ; preds = %15
  %17 = load i32, ptr @_ZN10Bookkeeper30rhs_bitfields_structs_vars_cntE, align 4, !tbaa !12
  %18 = add nsw i32 %17, 1
  store i32 %18, ptr @_ZN10Bookkeeper30rhs_bitfields_structs_vars_cntE, align 4, !tbaa !12
  br label %19

19:                                               ; preds = %16, %15
  %20 = getelementptr inbounds nuw i8, ptr %0, i64 83
  %21 = load i8, ptr %20, align 1, !tbaa !152, !range !66, !noundef !67
  %22 = trunc nuw i8 %21 to i1
  br i1 %22, label %_ZN10Bookkeeper23record_bitfields_writesEPK8Variable.exit.sink.split, label %_ZN10Bookkeeper23record_bitfields_writesEPK8Variable.exit

_ZN10Bookkeeper23record_bitfields_writesEPK8Variable.exit.sink.split: ; preds = %19, %11
  %_ZN10Bookkeeper16rhs_bitfield_cntE.sink20 = phi ptr [ @_ZN10Bookkeeper16lhs_bitfield_cntE, %11 ], [ @_ZN10Bookkeeper16rhs_bitfield_cntE, %19 ]
  %23 = load i32, ptr %_ZN10Bookkeeper16rhs_bitfield_cntE.sink20, align 4, !tbaa !12
  %24 = add nsw i32 %23, 1
  store i32 %24, ptr %_ZN10Bookkeeper16rhs_bitfield_cntE.sink20, align 4, !tbaa !12
  br label %_ZN10Bookkeeper23record_bitfields_writesEPK8Variable.exit

_ZN10Bookkeeper23record_bitfields_writesEPK8Variable.exit: ; preds = %_ZN10Bookkeeper23record_bitfields_writesEPK8Variable.exit.sink.split, %19, %11
  %.not14 = icmp slt i32 %1, 0
  br i1 %.not14, label %._crit_edge, label %.lr.ph

.lr.ph:                                           ; preds = %_ZN10Bookkeeper23record_bitfields_writesEPK8Variable.exit
  %25 = getelementptr inbounds nuw i8, ptr %0, i64 104
  br i1 %2, label %.lr.ph.split.us, label %.lr.ph.split

.lr.ph.split.us:                                  ; preds = %.lr.ph, %31
  %.015.us = phi i32 [ %34, %31 ], [ 0, %.lr.ph ]
  %26 = tail call noundef zeroext i1 @_ZNK12CVQualifiers23is_volatile_after_derefEi(ptr noundef nonnull align 8 dereferenceable(96) %25, i32 noundef %.015.us)
  br i1 %26, label %27, label %31

27:                                               ; preds = %.lr.ph.split.us
  %.not13.us = icmp eq i32 %.015.us, 0
  br i1 %.not13.us, label %31, label %28

28:                                               ; preds = %27
  %29 = load i32, ptr @_ZN10Bookkeeper27write_volatile_thru_ptr_cntE, align 4, !tbaa !12
  %30 = add nsw i32 %29, 1
  store i32 %30, ptr @_ZN10Bookkeeper27write_volatile_thru_ptr_cntE, align 4, !tbaa !12
  br label %31

31:                                               ; preds = %27, %28, %.lr.ph.split.us
  %_ZN10Bookkeeper18write_volatile_cntE.sink22 = phi ptr [ @_ZN10Bookkeeper22write_non_volatile_cntE, %.lr.ph.split.us ], [ @_ZN10Bookkeeper18write_volatile_cntE, %28 ], [ @_ZN10Bookkeeper18write_volatile_cntE, %27 ]
  %32 = load i32, ptr %_ZN10Bookkeeper18write_volatile_cntE.sink22, align 4, !tbaa !12
  %33 = add nsw i32 %32, 1
  store i32 %33, ptr %_ZN10Bookkeeper18write_volatile_cntE.sink22, align 4, !tbaa !12
  %34 = add nuw i32 %.015.us, 1
  %exitcond17.not = icmp eq i32 %.015.us, %1
  br i1 %exitcond17.not, label %._crit_edge, label %.lr.ph.split.us, !llvm.loop !156

.lr.ph.split:                                     ; preds = %.lr.ph, %40
  %.015 = phi i32 [ %43, %40 ], [ 0, %.lr.ph ]
  %35 = tail call noundef zeroext i1 @_ZNK12CVQualifiers23is_volatile_after_derefEi(ptr noundef nonnull align 8 dereferenceable(96) %25, i32 noundef %.015)
  br i1 %35, label %36, label %40

36:                                               ; preds = %.lr.ph.split
  %.not12 = icmp eq i32 %.015, 0
  br i1 %.not12, label %40, label %37

37:                                               ; preds = %36
  %38 = load i32, ptr @_ZN10Bookkeeper26read_volatile_thru_ptr_cntE, align 4, !tbaa !12
  %39 = add nsw i32 %38, 1
  store i32 %39, ptr @_ZN10Bookkeeper26read_volatile_thru_ptr_cntE, align 4, !tbaa !12
  br label %40

40:                                               ; preds = %.lr.ph.split, %36, %37
  %_ZN10Bookkeeper21read_non_volatile_cntE.sink24 = phi ptr [ @_ZN10Bookkeeper17read_volatile_cntE, %37 ], [ @_ZN10Bookkeeper17read_volatile_cntE, %36 ], [ @_ZN10Bookkeeper21read_non_volatile_cntE, %.lr.ph.split ]
  %41 = load i32, ptr %_ZN10Bookkeeper21read_non_volatile_cntE.sink24, align 4, !tbaa !12
  %42 = add nsw i32 %41, 1
  store i32 %42, ptr %_ZN10Bookkeeper21read_non_volatile_cntE.sink24, align 4, !tbaa !12
  %43 = add nuw i32 %.015, 1
  %exitcond.not = icmp eq i32 %.015, %1
  br i1 %exitcond.not, label %._crit_edge, label %.lr.ph.split, !llvm.loop !156

._crit_edge:                                      ; preds = %40, %31, %_ZN10Bookkeeper23record_bitfields_writesEPK8Variable.exit
  ret void
}